target datalayout = "e-m:e-p270:32:32-p271:32:32-p272:64:64-i64:64-i128:128-f80:128-n8:16:32:64-S128"
target triple = "x86_64-pc-linux-gnu"

%"class.Imf_3_4::ContextInitializer" = type { %struct._exr_context_initializer_v3, i32, ptr }
%struct._exr_context_initializer_v3 = type { i64, ptr, ptr, ptr, ptr, ptr, ptr, ptr, ptr, i32, i32, i32, i32, i32, float, i32, [4 x i8] }
%"class.std::mutex" = type { %"class.std::__mutex_base" }
%"class.std::__mutex_base" = type { %union.pthread_mutex_t }
%union.pthread_mutex_t = type { %struct.__pthread_mutex_s }
%struct.__pthread_mutex_s = type { i32, i32, i32, i32, i32, i16, i16, %struct.__pthread_internal_list }
%struct.__pthread_internal_list = type { ptr, ptr }
%"struct.Imf_3_4::ostream_holder" = type { %"class.std::mutex", i64, ptr }

; Function Attrs: mustprogress nounwind uwtable
define linkonce_odr hidden void @_ZNSt12__mutex_baseC2Ev(ptr noundef nonnull align 8 dereferenceable(40) %0) unnamed_addr #2 comdat align 2 {
  %2 = alloca ptr, align 8
  store ptr %0, ptr %2, align 8, !tbaa !49
  %3 = load ptr, ptr %2, align 8
  %4 = getelementptr inbounds nuw %"class.std::__mutex_base", ptr %3, i32 0, i32 0
  call void @llvm.memset.p0.i64(ptr align 8 %4, i8 0, i64 40, i1 false)
  %5 = getelementptr inbounds nuw %struct.__pthread_mutex_s, ptr %4, i32 0, i32 4
  store i32 0, ptr %5, align 8, !tbaa !51
  ret void
}

; Function Attrs: mustprogress nounwind uwtable
define linkonce_odr hidden void @_ZNSt5mutexC2Ev(ptr noundef nonnull align 8 dereferenceable(40) %0) unnamed_addr #2 comdat align 2 {
  %2 = alloca ptr, align 8
  store ptr %0, ptr %2, align 8, !tbaa !47
  %3 = load ptr, ptr %2, align 8
  call void @_ZNSt12__mutex_baseC2Ev(ptr noundef nonnull align 8 dereferenceable(40) %3) #15
  ret void
}

; Function Attrs: mustprogress uwtable
define linkonce_odr hidden void @_ZN7Imf_3_414ostream_holderC2EPNS_7OStreamE(ptr noundef nonnull align 8 dereferenceable(56) %0, ptr noundef %1) unnamed_addr #0 comdat align 2 {
  %3 = alloca ptr, align 8
  %4 = alloca ptr, align 8
  store ptr %0, ptr %3, align 8, !tbaa !42
  store ptr %1, ptr %4, align 8, !tbaa !40
  %5 = load ptr, ptr %3, align 8
  %6 = getelementptr inbounds nuw %"struct.Imf_3_4::ostream_holder", ptr %5, i32 0, i32 0
  call void @_ZNSt5mutexC2Ev(ptr noundef nonnull align 8 dereferenceable(40) %6) #15
  %7 = getelementptr inbounds nuw %"struct.Imf_3_4::ostream_holder", ptr %5, i32 0, i32 1
  store i64 0, ptr %7, align 8, !tbaa !44
  %8 = getelementptr inbounds nuw %"struct.Imf_3_4::ostream_holder", ptr %5, i32 0, i32 2
  %9 = load ptr, ptr %4, align 8, !tbaa !40
  store ptr %9, ptr %8, align 8, !tbaa !46
  %10 = getelementptr inbounds nuw %"struct.Imf_3_4::ostream_holder", ptr %5, i32 0, i32 2
  %11 = load ptr, ptr %10, align 8, !tbaa !46
  %12 = icmp ne ptr %11, null
  br i1 %12, label %13, label %21

13:                                               ; preds = %2
  %14 = getelementptr inbounds nuw %"struct.Imf_3_4::ostream_holder", ptr %5, i32 0, i32 2
  %15 = load ptr, ptr %14, align 8, !tbaa !46
  %16 = load ptr, ptr %15, align 8, !tbaa !17
  %17 = getelementptr inbounds ptr, ptr %16, i64 3
  %18 = load ptr, ptr %17, align 8
  %19 = call noundef i64 %18(ptr noundef nonnull align 8 dereferenceable(40) %15)
  %20 = getelementptr inbounds nuw %"struct.Imf_3_4::ostream_holder", ptr %5, i32 0, i32 1
  store i64 %19, ptr %20, align 8, !tbaa !44
  br label %21

21:                                               ; preds = %13, %2
  ret void
}

; Function Attrs: mustprogress uwtable
define noundef nonnull align 8 dereferenceable(120) ptr @_ZN7Imf_3_418ContextInitializer15setOutputStreamEPNS_7OStreamE(ptr noundef nonnull align 8 dereferenceable(120) %0, ptr noundef %1) #0 align 2 personality ptr @__gxx_personality_v0 {
  %3 = alloca ptr, align 8
  %4 = alloca ptr, align 8
  %5 = alloca ptr, align 8
  %6 = alloca i32, align 4
  store ptr %0, ptr %3, align 8, !tbaa !3
  store ptr %1, ptr %4, align 8, !tbaa !40
  %7 = load ptr, ptr %3, align 8
  %8 = call noalias noundef nonnull ptr @_Znwm(i64 noundef 56) #13
  %9 = load ptr, ptr %4, align 8, !tbaa !40
  invoke void @_ZN7Imf_3_414ostream_holderC2EPNS_7OStreamE(ptr noundef nonnull align 8 dereferenceable(56) %8, ptr noundef %9)
          to label %10 unwind label %22

10:                                               ; preds = %2
  %11 = getelementptr inbounds nuw %"class.Imf_3_4::ContextInitializer", ptr %7, i32 0, i32 0
  %12 = getelementptr inbounds nuw %struct._exr_context_initializer_v3, ptr %11, i32 0, i32 4
  store ptr %8, ptr %12, align 8, !tbaa !10
  %13 = getelementptr inbounds nuw %"class.Imf_3_4::ContextInitializer", ptr %7, i32 0, i32 0
  %14 = getelementptr inbounds nuw %struct._exr_context_initializer_v3, ptr %13, i32 0, i32 5
  store ptr null, ptr %14, align 8, !tbaa !19
  %15 = getelementptr inbounds nuw %"class.Imf_3_4::ContextInitializer", ptr %7, i32 0, i32 0
  %16 = getelementptr inbounds nuw %struct._exr_context_initializer_v3, ptr %15, i32 0, i32 6
  store ptr null, ptr %16, align 8, !tbaa !20
  %17 = getelementptr inbounds nuw %"class.Imf_3_4::ContextInitializer", ptr %7, i32 0, i32 0
  %18 = getelementptr inbounds nuw %struct._exr_context_initializer_v3, ptr %17, i32 0, i32 7
  store ptr @_ZN7Imf_3_4L13ostream_writeEPK19_priv_exr_context_tPvPKvmmPFiS2_iPKczE, ptr %18, align 8, !tbaa !21
  %19 = getelementptr inbounds nuw %"class.Imf_3_4::ContextInitializer", ptr %7, i32 0, i32 0
  %20 = getelementptr inbounds nuw %struct._exr_context_initializer_v3, ptr %19, i32 0, i32 8
  store ptr @_ZN7Imf_3_4L15ostream_destroyEPK19_priv_exr_context_tPvi, ptr %20, align 8, !tbaa !22
  %21 = getelementptr inbounds nuw %"class.Imf_3_4::ContextInitializer", ptr %7, i32 0, i32 1
  store i32 1, ptr %21, align 8, !tbaa !23
  ret ptr %7

22:                                               ; preds = %2
  %23 = landingpad { ptr, i32 }
          cleanup
  %24 = extractvalue { ptr, i32 } %23, 0
  store ptr %24, ptr %5, align 8
  %25 = extractvalue { ptr, i32 } %23, 1
  store i32 %25, ptr %6, align 4
  call void @_ZdlPvm(ptr noundef %8, i64 noundef 56) #14
  br label %26

26:                                               ; preds = %22
  %27 = load ptr, ptr %5, align 8
  %28 = load i32, ptr %6, align 4
  %29 = insertvalue { ptr, i32 } poison, ptr %27, 0
  %30 = insertvalue { ptr, i32 } %29, i32 %28, 1
  resume { ptr, i32 } %30
}