; Function Attrs: mustprogress uwtable
define noundef nonnull align 8 dereferenceable(120) ptr @_ZN7Imf_3_418ContextInitializer15setOutputStreamEPNS_7OStreamE(ptr noundef nonnull returned writeonly align 8 dereferenceable(120) %0, ptr noundef %1) local_unnamed_addr #0 align 2 personality ptr @__gxx_personality_v0 {
  %3 = tail call noalias noundef nonnull dereferenceable(56) ptr @_Znwm(i64 noundef 56) #11
  %4 = getelementptr inbounds nuw i8, ptr %3, i64 48
  tail call void @llvm.memset.p0.i64(ptr noundef nonnull align 8 dereferenceable(56) %3, i8 0, i64 48, i1 false)
  store ptr %1, ptr %4, align 8, !tbaa !26
  %.not.i = icmp eq ptr %1, null
  br i1 %.not.i, label %_ZN7Imf_3_414ostream_holderC2EPNS_7OStreamE.exit, label %5

5:                                                ; preds = %2
  %6 = load ptr, ptr %1, align 8, !tbaa !18
  %7 = getelementptr inbounds nuw i8, ptr %6, i64 24
  %8 = load ptr, ptr %7, align 8
  %9 = invoke noundef i64 %8(ptr noundef nonnull align 8 dereferenceable(40) %1)
          to label %.noexc unwind label %16

.noexc:                                           ; preds = %5
  %10 = getelementptr inbounds nuw i8, ptr %3, i64 40
  store i64 %9, ptr %10, align 8, !tbaa !29
  br label %_ZN7Imf_3_414ostream_holderC2EPNS_7OStreamE.exit

_ZN7Imf_3_414ostream_holderC2EPNS_7OStreamE.exit: ; preds = %.noexc, %2
  %11 = getelementptr inbounds nuw i8, ptr %0, i64 32
  store ptr %3, ptr %11, align 8, !tbaa !11
  %12 = getelementptr inbounds nuw i8, ptr %0, i64 40
  %13 = getelementptr inbounds nuw i8, ptr %0, i64 56
  tail call void @llvm.memset.p0.i64(ptr noundef nonnull align 8 dereferenceable(16) %12, i8 0, i64 16, i1 false)
  store ptr @_ZN7Imf_3_4L13ostream_writeEPK19_priv_exr_context_tPvPKvmmPFiS2_iPKczE, ptr %13, align 8, !tbaa !22
  %14 = getelementptr inbounds nuw i8, ptr %0, i64 64
  store ptr @_ZN7Imf_3_4L15ostream_destroyEPK19_priv_exr_context_tPvi, ptr %14, align 8, !tbaa !23
  %15 = getelementptr inbounds nuw i8, ptr %0, i64 104
  store i32 1, ptr %15, align 8, !tbaa !24
  ret ptr %0

16:                                               ; preds = %5
  %17 = landingpad { ptr, i32 }
          cleanup
  tail call void @_ZdlPvm(ptr noundef nonnull %3, i64 noundef 56) #15
  resume { ptr, i32 } %17
}